#include <math.h>
#include <stdio.h>
#include <stdlib.h>
#include <string.h>

int main()
{
    int i,n,a[300]={0},flag[300]={0},p=0;
    scanf("%d",&n);
    for(i=0;i<n;i++)
    scanf("%d",&a[i]);
    for(i=0;i<n;i++)
    {
                    p++;
                    flag[a[i]]++;
                    if(flag[a[i]]==1&&p==1)
                    {printf("%d",a[i]);}
                    else if(flag[a[i]]==1&&p>1)
                    {printf(",%d",a[i]);}
                    else
                    continue;
    }
    return(0);
}
                                  
